; Function Attrs: nounwind uwtable
define dso_local range(i32 -30, 1) i32 @archive_read_disk_set_atime_restored(ptr noundef %0) local_unnamed_addr #0 {
  %2 = tail call i32 @__archive_check_magic(ptr noundef %0, i32 noundef 195932357, i32 noundef 32767, ptr noundef nonnull @.str.7) #17
  %3 = icmp eq i32 %2, -30
  br i1 %3, label %14, label %4

4:                                                ; preds = %1
  %5 = getelementptr inbounds nuw i8, ptr %0, i64 192
  %6 = load i32, ptr %5, align 8
  %7 = or i32 %6, 1
  store i32 %7, ptr %5, align 8
  %8 = getelementptr inbounds nuw i8, ptr %0, i64 160
  %9 = load ptr, ptr %8, align 8
  %.not = icmp eq ptr %9, null
  br i1 %.not, label %14, label %10

10:                                               ; preds = %4
  %11 = getelementptr inbounds nuw i8, ptr %9, i64 32
  %12 = load i32, ptr %11, align 8
  %13 = or i32 %12, 128
  store i32 %13, ptr %11, align 8
  br label %14

14:                                               ; preds = %4, %10, %1
  %.0 = phi i32 [ -30, %1 ], [ 0, %10 ], [ 0, %4 ]
  ret i32 %.0
}